target datalayout = "e-m:e-p270:32:32-p271:32:32-p272:64:64-i64:64-i128:128-f80:128-n8:16:32:64-S128"
target triple = "x86_64-pc-linux-gnu"

%"class.icu_77::UObject" = type { ptr }
%"class.icu_77::NumberFormat" = type <{ %"class.icu_77::Format", i8, [3 x i8], i32, i32, i32, i32, i8, i8, [4 x i16], [2 x i8], i32, [4 x i8] }>
%"class.icu_77::Format" = type { %"class.icu_77::UObject", ptr, ptr }

; Function Attrs: inlinehint mustprogress nounwind uwtable
define internal noundef signext i8 @_ZL9U_FAILURE10UErrorCode(i32 noundef %0) #2 {
  %2 = alloca i32, align 4
  store i32 %0, ptr %2, align 4, !tbaa !15
  %3 = load i32, ptr %2, align 4, !tbaa !15
  %4 = icmp sgt i32 %3, 0
  %5 = zext i1 %4 to i8
  ret i8 %5
}

; Function Attrs: mustprogress uwtable
define void @_ZN6icu_7712NumberFormat11setCurrencyEPKDsR10UErrorCode(ptr noundef nonnull align 8 dereferenceable(60) %0, ptr noundef %1, ptr noundef nonnull align 4 dereferenceable(4) %2) unnamed_addr #1 align 2 {
  %4 = alloca ptr, align 8
  %5 = alloca ptr, align 8
  %6 = alloca ptr, align 8
  store ptr %0, ptr %4, align 8, !tbaa !40
  store ptr %1, ptr %5, align 8, !tbaa !87
  store ptr %2, ptr %6, align 8, !tbaa !22
  %7 = load ptr, ptr %4, align 8
  %8 = load ptr, ptr %6, align 8, !tbaa !22
  %9 = load i32, ptr %8, align 4, !tbaa !15
  %10 = call noundef signext i8 @_ZL9U_FAILURE10UErrorCode(i32 noundef %9)
  %11 = icmp ne i8 %10, 0
  br i1 %11, label %12, label %13

12:                                               ; preds = %3
  br label %26

13:                                               ; preds = %3
  %14 = load ptr, ptr %5, align 8, !tbaa !87
  %15 = icmp ne ptr %14, null
  br i1 %15, label %16, label %23

16:                                               ; preds = %13
  %17 = getelementptr inbounds nuw %"class.icu_77::NumberFormat", ptr %7, i32 0, i32 9
  %18 = getelementptr inbounds [4 x i16], ptr %17, i64 0, i64 0
  %19 = load ptr, ptr %5, align 8, !tbaa !87
  %20 = call ptr @u_strncpy_77(ptr noundef %18, ptr noundef %19, i32 noundef 3)
  %21 = getelementptr inbounds nuw %"class.icu_77::NumberFormat", ptr %7, i32 0, i32 9
  %22 = getelementptr inbounds [4 x i16], ptr %21, i64 0, i64 3
  store i16 0, ptr %22, align 2, !tbaa !54
  br label %26

23:                                               ; preds = %13
  %24 = getelementptr inbounds nuw %"class.icu_77::NumberFormat", ptr %7, i32 0, i32 9
  %25 = getelementptr inbounds [4 x i16], ptr %24, i64 0, i64 0
  store i16 0, ptr %25, align 2, !tbaa !54
  br label %26

26:                                               ; preds = %12, %23, %16
  ret void
}