; Function Attrs: mustprogress uwtable
define void @_ZN6icu_7712NumberFormat11setCurrencyEPKDsR10UErrorCode(ptr noundef nonnull align 8 dereferenceable(60) %0, ptr noundef %1, ptr noundef nonnull readonly align 4 captures(none) dereferenceable(4) %2) unnamed_addr #1 align 2 {
  %4 = load i32, ptr %2, align 4, !tbaa !13
  %5 = icmp slt i32 %4, 1
  br i1 %5, label %6, label %12

6:                                                ; preds = %3
  %.not4 = icmp eq ptr %1, null
  %7 = getelementptr inbounds nuw i8, ptr %0, i64 46
  br i1 %.not4, label %11, label %8

8:                                                ; preds = %6
  %9 = tail call ptr @u_strncpy_77(ptr noundef nonnull %7, ptr noundef nonnull %1, i32 noundef 3)
  %10 = getelementptr inbounds nuw i8, ptr %0, i64 52
  store i16 0, ptr %10, align 4, !tbaa !36
  br label %12

11:                                               ; preds = %6
  store i16 0, ptr %7, align 2, !tbaa !36
  br label %12

12:                                               ; preds = %3, %11, %8
  ret void
}